; Function Attrs: mustprogress nounwind uwtable
define hidden void @_ZN27JvmtiClassFileReconstituter25write_nest_host_attributeEv(ptr nocapture noundef nonnull align 8 dereferenceable(88) %0) local_unnamed_addr #0 align 2 {
  %2 = getelementptr inbounds i8, ptr %0, i64 40
  %3 = load ptr, ptr %2, align 8
  %4 = getelementptr inbounds i8, ptr %3, i64 296
  %5 = load i16, ptr %4, align 8
  tail call void @_ZN27JvmtiClassFileReconstituter26write_attribute_name_indexEPKc(ptr noundef nonnull align 8 dereferenceable(88) %0, ptr noundef nonnull @.str.18)
  %6 = getelementptr inbounds i8, ptr %0, i64 72
  %7 = load ptr, ptr %6, align 8
  %8 = getelementptr inbounds i8, ptr %0, i64 64
  %9 = load ptr, ptr %8, align 8
  %10 = ptrtoint ptr %7 to i64
  %11 = ptrtoint ptr %9 to i64
  %12 = sub i64 %10, %11
  %13 = add i64 %12, 4
  %14 = getelementptr inbounds i8, ptr %0, i64 56
  %15 = load i64, ptr %14, align 8
  %.not.i.i = icmp ult i64 %13, %15
  br i1 %.not.i.i, label %_ZN27JvmtiClassFileReconstituter17writeable_addressEm.exit.i, label %16

16:                                               ; preds = %1
  %17 = shl i64 %15, 1
  %18 = add i64 %17, 5
  %19 = and i64 %18, -1024
  %20 = tail call noundef ptr @_Z25resource_reallocate_bytesPcmmN17AllocFailStrategy13AllocFailEnumE(ptr noundef %9, i64 noundef %15, i64 noundef %19, i32 noundef 0) #12
  store ptr %20, ptr %8, align 8
  store i64 %19, ptr %14, align 8
  %21 = getelementptr inbounds i8, ptr %20, i64 %12
  %.pre.i = ptrtoint ptr %21 to i64
  br label %_ZN27JvmtiClassFileReconstituter17writeable_addressEm.exit.i

_ZN27JvmtiClassFileReconstituter17writeable_addressEm.exit.i: ; preds = %16, %1
  %.pre-phi.i = phi i64 [ %10, %1 ], [ %.pre.i, %16 ]
  %22 = phi ptr [ %7, %1 ], [ %21, %16 ]
  %23 = getelementptr inbounds i8, ptr %22, i64 4
  store ptr %23, ptr %6, align 8
  %24 = and i64 %.pre-phi.i, 3
  %25 = icmp eq i64 %24, 0
  br i1 %25, label %26, label %27

26:                                               ; preds = %_ZN27JvmtiClassFileReconstituter17writeable_addressEm.exit.i
  store i32 33554432, ptr %22, align 4
  br label %_ZN27JvmtiClassFileReconstituter8write_u4Ej.exit

27:                                               ; preds = %_ZN27JvmtiClassFileReconstituter17writeable_addressEm.exit.i
  store i32 33554432, ptr %22, align 1
  br label %_ZN27JvmtiClassFileReconstituter8write_u4Ej.exit

_ZN27JvmtiClassFileReconstituter8write_u4Ej.exit: ; preds = %26, %27
  %28 = load ptr, ptr %6, align 8
  %29 = load ptr, ptr %8, align 8
  %30 = ptrtoint ptr %28 to i64
  %31 = ptrtoint ptr %29 to i64
  %32 = sub i64 %30, %31
  %33 = add i64 %32, 2
  %34 = load i64, ptr %14, align 8
  %.not.i.i2 = icmp ult i64 %33, %34
  br i1 %.not.i.i2, label %_ZN27JvmtiClassFileReconstituter17writeable_addressEm.exit.i4, label %35

35:                                               ; preds = %_ZN27JvmtiClassFileReconstituter8write_u4Ej.exit
  %36 = shl i64 %34, 1
  %37 = add i64 %36, 3
  %38 = and i64 %37, -1024
  %39 = tail call noundef ptr @_Z25resource_reallocate_bytesPcmmN17AllocFailStrategy13AllocFailEnumE(ptr noundef %29, i64 noundef %34, i64 noundef %38, i32 noundef 0) #12
  store ptr %39, ptr %8, align 8
  store i64 %38, ptr %14, align 8
  %40 = getelementptr inbounds i8, ptr %39, i64 %32
  %.pre.i3 = ptrtoint ptr %40 to i64
  br label %_ZN27JvmtiClassFileReconstituter17writeable_addressEm.exit.i4

_ZN27JvmtiClassFileReconstituter17writeable_addressEm.exit.i4: ; preds = %35, %_ZN27JvmtiClassFileReconstituter8write_u4Ej.exit
  %.pre-phi.i5 = phi i64 [ %30, %_ZN27JvmtiClassFileReconstituter8write_u4Ej.exit ], [ %.pre.i3, %35 ]
  %41 = phi ptr [ %28, %_ZN27JvmtiClassFileReconstituter8write_u4Ej.exit ], [ %40, %35 ]
  %42 = getelementptr inbounds i8, ptr %41, i64 2
  store ptr %42, ptr %6, align 8
  %43 = tail call noundef i16 @llvm.bswap.i16(i16 %5)
  %44 = and i64 %.pre-phi.i5, 1
  %45 = icmp eq i64 %44, 0
  br i1 %45, label %46, label %47

46:                                               ; preds = %_ZN27JvmtiClassFileReconstituter17writeable_addressEm.exit.i4
  store i16 %43, ptr %41, align 2
  br label %_ZN27JvmtiClassFileReconstituter8write_u2Et.exit

47:                                               ; preds = %_ZN27JvmtiClassFileReconstituter17writeable_addressEm.exit.i4
  store i16 %43, ptr %41, align 1
  br label %_ZN27JvmtiClassFileReconstituter8write_u2Et.exit

_ZN27JvmtiClassFileReconstituter8write_u2Et.exit: ; preds = %46, %47
  ret void
}